target datalayout = "e-m:e-p270:32:32-p271:32:32-p272:64:64-i64:64-i128:128-f80:128-n8:16:32:64-S128"
target triple = "x86_64-pc-linux-gnu"

%"class.std::basic_ios" = type { %"class.std::ios_base", ptr, i8, i8, ptr, ptr, ptr, ptr }
%"class.std::ios_base" = type { ptr, i64, i64, i32, i32, i32, ptr, %"struct.std::ios_base::_Words", [8 x %"struct.std::ios_base::_Words"], i32, ptr, %"class.std::locale" }
%"struct.std::ios_base::_Words" = type { ptr, i64 }
%"class.std::locale" = type { ptr }
%"struct.std::_Setfill" = type { i8 }
%"struct.std::_Setw" = type { i32 }
%"class.std::ctype" = type <{ %"class.std::locale::facet.base", [4 x i8], ptr, i8, [7 x i8], ptr, ptr, ptr, i8, [256 x i8], [256 x i8], i8, [6 x i8] }>
%"class.std::locale::facet.base" = type <{ ptr, i32 }>

@.str.81 = private unnamed_addr constant [3 x i8] c"U+\00", align 1

; Function Attrs: mustprogress uwtable
define linkonce_odr dso_local noundef signext i8 @_ZNKSt5ctypeIcE5widenEc(ptr noundef nonnull align 8 dereferenceable(570) %0, i8 noundef signext %1) #4 comdat align 2 {
  %3 = alloca i8, align 1
  %4 = alloca ptr, align 8
  %5 = alloca i8, align 1
  store ptr %0, ptr %4, align 8, !tbaa !1620
  store i8 %1, ptr %5, align 1, !tbaa !172
  %6 = load ptr, ptr %4, align 8
  %7 = getelementptr inbounds nuw %"class.std::ctype", ptr %6, i32 0, i32 8
  %8 = load i8, ptr %7, align 8, !tbaa !1621
  %9 = icmp ne i8 %8, 0
  br i1 %9, label %10, label %16

10:                                               ; preds = %2
  %11 = getelementptr inbounds nuw %"class.std::ctype", ptr %6, i32 0, i32 9
  %12 = load i8, ptr %5, align 1, !tbaa !172
  %13 = zext i8 %12 to i64
  %14 = getelementptr inbounds nuw [256 x i8], ptr %11, i64 0, i64 %13
  %15 = load i8, ptr %14, align 1, !tbaa !172
  store i8 %15, ptr %3, align 1
  br label %22

16:                                               ; preds = %2
  call void @_ZNKSt5ctypeIcE13_M_widen_initEv(ptr noundef nonnull align 8 dereferenceable(570) %6)
  %17 = load i8, ptr %5, align 1, !tbaa !172
  %18 = load ptr, ptr %6, align 8, !tbaa !50
  %19 = getelementptr inbounds ptr, ptr %18, i64 6
  %20 = load ptr, ptr %19, align 8
  %21 = call noundef signext i8 %20(ptr noundef nonnull align 8 dereferenceable(570) %6, i8 noundef signext %17)
  store i8 %21, ptr %3, align 1
  br label %22

22:                                               ; preds = %16, %10
  %23 = load i8, ptr %3, align 1
  ret i8 %23
}

; Function Attrs: inlinehint mustprogress uwtable
define linkonce_odr dso_local noundef nonnull align 8 dereferenceable(570) ptr @_ZSt13__check_facetISt5ctypeIcEERKT_PS3_(ptr noundef %0) #11 comdat {
  %2 = alloca ptr, align 8
  store ptr %0, ptr %2, align 8, !tbaa !1620
  %3 = load ptr, ptr %2, align 8, !tbaa !1620
  %4 = icmp ne ptr %3, null
  br i1 %4, label %6, label %5

5:                                                ; preds = %1
  call void @_ZSt16__throw_bad_castv() #34
  unreachable

6:                                                ; preds = %1
  %7 = load ptr, ptr %2, align 8, !tbaa !1620
  ret ptr %7
}

; Function Attrs: mustprogress uwtable
define available_externally noundef signext i8 @_ZNKSt9basic_iosIcSt11char_traitsIcEE5widenEc(ptr noundef nonnull align 8 dereferenceable(264) %0, i8 noundef signext %1) #4 align 2 {
  %3 = alloca ptr, align 8
  %4 = alloca i8, align 1
  store ptr %0, ptr %3, align 8, !tbaa !1537
  store i8 %1, ptr %4, align 1, !tbaa !172
  %5 = load ptr, ptr %3, align 8
  %6 = getelementptr inbounds nuw %"class.std::basic_ios", ptr %5, i32 0, i32 5
  %7 = load ptr, ptr %6, align 8, !tbaa !1550
  %8 = call noundef nonnull align 8 dereferenceable(570) ptr @_ZSt13__check_facetISt5ctypeIcEERKT_PS3_(ptr noundef %7)
  %9 = load i8, ptr %4, align 1, !tbaa !172
  %10 = call noundef signext i8 @_ZNKSt5ctypeIcE5widenEc(ptr noundef nonnull align 8 dereferenceable(570) %8, i8 noundef signext %9)
  ret i8 %10
}

; Function Attrs: mustprogress uwtable
define available_externally noundef signext i8 @_ZNKSt9basic_iosIcSt11char_traitsIcEE4fillEv(ptr noundef nonnull align 8 dereferenceable(264) %0) #4 align 2 {
  %2 = alloca ptr, align 8
  store ptr %0, ptr %2, align 8, !tbaa !1537
  %3 = load ptr, ptr %2, align 8
  %4 = getelementptr inbounds nuw %"class.std::basic_ios", ptr %3, i32 0, i32 3
  %5 = load i8, ptr %4, align 1, !tbaa !1548, !range !19, !noundef !20
  %6 = trunc i8 %5 to i1
  br i1 %6, label %11, label %7

7:                                                ; preds = %1
  %8 = call noundef signext i8 @_ZNKSt9basic_iosIcSt11char_traitsIcEE5widenEc(ptr noundef nonnull align 8 dereferenceable(264) %3, i8 noundef signext 32)
  %9 = getelementptr inbounds nuw %"class.std::basic_ios", ptr %3, i32 0, i32 2
  store i8 %8, ptr %9, align 8, !tbaa !1547
  %10 = getelementptr inbounds nuw %"class.std::basic_ios", ptr %3, i32 0, i32 3
  store i8 1, ptr %10, align 1, !tbaa !1548
  br label %11

11:                                               ; preds = %7, %1
  %12 = getelementptr inbounds nuw %"class.std::basic_ios", ptr %3, i32 0, i32 2
  %13 = load i8, ptr %12, align 8, !tbaa !1547
  ret i8 %13
}

; Function Attrs: inlinehint mustprogress nounwind uwtable
define linkonce_odr dso_local noundef i32 @_ZStorSt12_Ios_IostateS_(i32 noundef %0, i32 noundef %1) #5 comdat {
  %3 = alloca i32, align 4
  %4 = alloca i32, align 4
  store i32 %0, ptr %3, align 4, !tbaa !1539
  store i32 %1, ptr %4, align 4, !tbaa !1539
  %5 = load i32, ptr %3, align 4, !tbaa !1539
  %6 = load i32, ptr %4, align 4, !tbaa !1539
  %7 = or i32 %5, %6
  ret i32 %7
}

; Function Attrs: mustprogress nounwind uwtable
define available_externally noundef i32 @_ZNKSt9basic_iosIcSt11char_traitsIcEE7rdstateEv(ptr noundef nonnull align 8 dereferenceable(264) %0) #7 align 2 {
  %2 = alloca ptr, align 8
  store ptr %0, ptr %2, align 8, !tbaa !1537
  %3 = load ptr, ptr %2, align 8
  %4 = getelementptr inbounds nuw %"class.std::ios_base", ptr %3, i32 0, i32 5
  %5 = load i32, ptr %4, align 8, !tbaa !1540
  ret i32 %5
}

; Function Attrs: mustprogress nounwind uwtable
define linkonce_odr dso_local noundef i64 @_ZNSt8ios_base5widthEl(ptr noundef nonnull align 8 dereferenceable(216) %0, i64 noundef %1) #7 comdat align 2 {
  %3 = alloca ptr, align 8
  %4 = alloca i64, align 8
  %5 = alloca i64, align 8
  store ptr %0, ptr %3, align 8, !tbaa !359
  store i64 %1, ptr %4, align 8, !tbaa !191
  %6 = load ptr, ptr %3, align 8
  call void @llvm.lifetime.start.p0(i64 8, ptr %5) #3
  %7 = getelementptr inbounds nuw %"class.std::ios_base", ptr %6, i32 0, i32 2
  %8 = load i64, ptr %7, align 8, !tbaa !1017
  store i64 %8, ptr %5, align 8, !tbaa !191
  %9 = load i64, ptr %4, align 8, !tbaa !191
  %10 = getelementptr inbounds nuw %"class.std::ios_base", ptr %6, i32 0, i32 2
  store i64 %9, ptr %10, align 8, !tbaa !1017
  %11 = load i64, ptr %5, align 8, !tbaa !191
  call void @llvm.lifetime.end.p0(i64 8, ptr %5) #3
  ret i64 %11
}

; Function Attrs: mustprogress uwtable
define available_externally noundef signext i8 @_ZNSt9basic_iosIcSt11char_traitsIcEE4fillEc(ptr noundef nonnull align 8 dereferenceable(264) %0, i8 noundef signext %1) #4 align 2 {
  %3 = alloca ptr, align 8
  %4 = alloca i8, align 1
  %5 = alloca i8, align 1
  store ptr %0, ptr %3, align 8, !tbaa !1537
  store i8 %1, ptr %4, align 1, !tbaa !172
  %6 = load ptr, ptr %3, align 8
  call void @llvm.lifetime.start.p0(i64 1, ptr %5) #3
  %7 = call noundef signext i8 @_ZNKSt9basic_iosIcSt11char_traitsIcEE4fillEv(ptr noundef nonnull align 8 dereferenceable(264) %6)
  store i8 %7, ptr %5, align 1, !tbaa !172
  %8 = load i8, ptr %4, align 1, !tbaa !172
  %9 = getelementptr inbounds nuw %"class.std::basic_ios", ptr %6, i32 0, i32 2
  store i8 %8, ptr %9, align 8, !tbaa !1547
  %10 = load i8, ptr %5, align 1, !tbaa !172
  call void @llvm.lifetime.end.p0(i64 1, ptr %5) #3
  ret i8 %10
}

; Function Attrs: mustprogress nounwind uwtable
define linkonce_odr dso_local noundef i64 @_ZNSt11char_traitsIcE6lengthEPKc(ptr noundef %0) #7 comdat align 2 {
  %2 = alloca ptr, align 8
  store ptr %0, ptr %2, align 8, !tbaa !32
  %3 = load ptr, ptr %2, align 8, !tbaa !32
  %4 = call i64 @strlen(ptr noundef %3) #3
  ret i64 %4
}

; Function Attrs: mustprogress uwtable
define available_externally void @_ZNSt9basic_iosIcSt11char_traitsIcEE8setstateESt12_Ios_Iostate(ptr noundef nonnull align 8 dereferenceable(264) %0, i32 noundef %1) #4 align 2 {
  %3 = alloca ptr, align 8
  %4 = alloca i32, align 4
  store ptr %0, ptr %3, align 8, !tbaa !1537
  store i32 %1, ptr %4, align 4, !tbaa !1539
  %5 = load ptr, ptr %3, align 8
  %6 = call noundef i32 @_ZNKSt9basic_iosIcSt11char_traitsIcEE7rdstateEv(ptr noundef nonnull align 8 dereferenceable(264) %5)
  %7 = load i32, ptr %4, align 4, !tbaa !1539
  %8 = call noundef i32 @_ZStorSt12_Ios_IostateS_(i32 noundef %6, i32 noundef %7)
  call void @_ZNSt9basic_iosIcSt11char_traitsIcEE5clearESt12_Ios_Iostate(ptr noundef nonnull align 8 dereferenceable(264) %5, i32 noundef %8)
  ret void
}

; Function Attrs: mustprogress uwtable
define available_externally noundef nonnull align 8 dereferenceable(8) ptr @_ZNSolsEj(ptr noundef nonnull align 8 dereferenceable(8) %0, i32 noundef %1) #4 align 2 {
  %3 = alloca ptr, align 8
  %4 = alloca i32, align 4
  store ptr %0, ptr %3, align 8, !tbaa !187
  store i32 %1, ptr %4, align 4, !tbaa !40
  %5 = load ptr, ptr %3, align 8
  %6 = load i32, ptr %4, align 4, !tbaa !40
  %7 = zext i32 %6 to i64
  %8 = call noundef nonnull align 8 dereferenceable(8) ptr @_ZNSo9_M_insertImEERSoT_(ptr noundef nonnull align 8 dereferenceable(8) %5, i64 noundef %7)
  ret ptr %8
}

; Function Attrs: inlinehint mustprogress uwtable
define available_externally noundef nonnull align 8 dereferenceable(8) ptr @_ZStlsIcSt11char_traitsIcEERSt13basic_ostreamIT_T0_ES6_St5_Setw(ptr noundef nonnull align 8 dereferenceable(8) %0, i32 %1) #11 {
  %3 = alloca %"struct.std::_Setw", align 4
  %4 = alloca ptr, align 8
  %5 = getelementptr inbounds nuw %"struct.std::_Setw", ptr %3, i32 0, i32 0
  store i32 %1, ptr %5, align 4
  store ptr %0, ptr %4, align 8, !tbaa !187
  %6 = load ptr, ptr %4, align 8, !tbaa !187
  %7 = load ptr, ptr %6, align 8, !tbaa !50
  %8 = getelementptr i8, ptr %7, i64 -24
  %9 = load i64, ptr %8, align 8
  %10 = getelementptr inbounds i8, ptr %6, i64 %9
  %11 = getelementptr inbounds nuw %"struct.std::_Setw", ptr %3, i32 0, i32 0
  %12 = load i32, ptr %11, align 4, !tbaa !355
  %13 = sext i32 %12 to i64
  %14 = call noundef i64 @_ZNSt8ios_base5widthEl(ptr noundef nonnull align 8 dereferenceable(216) %10, i64 noundef %13)
  %15 = load ptr, ptr %4, align 8, !tbaa !187
  ret ptr %15
}

; Function Attrs: inlinehint mustprogress nounwind uwtable
define linkonce_odr dso_local i32 @_ZSt4setwi(i32 noundef %0) #5 comdat {
  %2 = alloca %"struct.std::_Setw", align 4
  %3 = alloca i32, align 4
  store i32 %0, ptr %3, align 4, !tbaa !40
  %4 = getelementptr inbounds nuw %"struct.std::_Setw", ptr %2, i32 0, i32 0
  %5 = load i32, ptr %3, align 4, !tbaa !40
  store i32 %5, ptr %4, align 4, !tbaa !355
  %6 = getelementptr inbounds nuw %"struct.std::_Setw", ptr %2, i32 0, i32 0
  %7 = load i32, ptr %6, align 4
  ret i32 %7
}

; Function Attrs: inlinehint mustprogress uwtable
define available_externally noundef nonnull align 8 dereferenceable(8) ptr @_ZStlsIcSt11char_traitsIcEERSt13basic_ostreamIT_T0_ES6_St8_SetfillIS3_E(ptr noundef nonnull align 8 dereferenceable(8) %0, i8 %1) #11 {
  %3 = alloca %"struct.std::_Setfill", align 1
  %4 = alloca ptr, align 8
  %5 = getelementptr inbounds nuw %"struct.std::_Setfill", ptr %3, i32 0, i32 0
  store i8 %1, ptr %5, align 1
  store ptr %0, ptr %4, align 8, !tbaa !187
  %6 = load ptr, ptr %4, align 8, !tbaa !187
  %7 = load ptr, ptr %6, align 8, !tbaa !50
  %8 = getelementptr i8, ptr %7, i64 -24
  %9 = load i64, ptr %8, align 8
  %10 = getelementptr inbounds i8, ptr %6, i64 %9
  %11 = getelementptr inbounds nuw %"struct.std::_Setfill", ptr %3, i32 0, i32 0
  %12 = load i8, ptr %11, align 1, !tbaa !357
  %13 = call noundef signext i8 @_ZNSt9basic_iosIcSt11char_traitsIcEE4fillEc(ptr noundef nonnull align 8 dereferenceable(264) %10, i8 noundef signext %12)
  %14 = load ptr, ptr %4, align 8, !tbaa !187
  ret ptr %14
}

; Function Attrs: inlinehint mustprogress nounwind uwtable
define linkonce_odr dso_local i8 @_ZSt7setfillIcESt8_SetfillIT_ES1_(i8 noundef signext %0) #5 comdat {
  %2 = alloca %"struct.std::_Setfill", align 1
  %3 = alloca i8, align 1
  store i8 %0, ptr %3, align 1, !tbaa !172
  %4 = getelementptr inbounds nuw %"struct.std::_Setfill", ptr %2, i32 0, i32 0
  %5 = load i8, ptr %3, align 1, !tbaa !172
  store i8 %5, ptr %4, align 1, !tbaa !357
  %6 = getelementptr inbounds nuw %"struct.std::_Setfill", ptr %2, i32 0, i32 0
  %7 = load i8, ptr %6, align 1
  ret i8 %7
}

; Function Attrs: inlinehint mustprogress uwtable
define available_externally noundef nonnull align 8 dereferenceable(8) ptr @_ZStlsISt11char_traitsIcEERSt13basic_ostreamIcT_ES5_PKc(ptr noundef nonnull align 8 dereferenceable(8) %0, ptr noundef %1) #11 {
  %3 = alloca ptr, align 8
  %4 = alloca ptr, align 8
  store ptr %0, ptr %3, align 8, !tbaa !187
  store ptr %1, ptr %4, align 8, !tbaa !32
  %5 = load ptr, ptr %4, align 8, !tbaa !32
  %6 = icmp ne ptr %5, null
  br i1 %6, label %13, label %7

7:                                                ; preds = %2
  %8 = load ptr, ptr %3, align 8, !tbaa !187
  %9 = load ptr, ptr %8, align 8, !tbaa !50
  %10 = getelementptr i8, ptr %9, i64 -24
  %11 = load i64, ptr %10, align 8
  %12 = getelementptr inbounds i8, ptr %8, i64 %11
  call void @_ZNSt9basic_iosIcSt11char_traitsIcEE8setstateESt12_Ios_Iostate(ptr noundef nonnull align 8 dereferenceable(264) %12, i32 noundef 1)
  br label %19

13:                                               ; preds = %2
  %14 = load ptr, ptr %3, align 8, !tbaa !187
  %15 = load ptr, ptr %4, align 8, !tbaa !32
  %16 = load ptr, ptr %4, align 8, !tbaa !32
  %17 = call noundef i64 @_ZNSt11char_traitsIcE6lengthEPKc(ptr noundef %16)
  %18 = call noundef nonnull align 8 dereferenceable(8) ptr @_ZSt16__ostream_insertIcSt11char_traitsIcEERSt13basic_ostreamIT_T0_ES6_PKS3_l(ptr noundef nonnull align 8 dereferenceable(8) %14, ptr noundef %15, i64 noundef %17)
  br label %19

19:                                               ; preds = %13, %7
  %20 = load ptr, ptr %3, align 8, !tbaa !187
  ret ptr %20
}

; Function Attrs: mustprogress uwtable
define available_externally noundef nonnull align 8 dereferenceable(8) ptr @_ZNSolsEPFRSt8ios_baseS0_E(ptr noundef nonnull align 8 dereferenceable(8) %0, ptr noundef %1) #4 align 2 {
  %3 = alloca ptr, align 8
  %4 = alloca ptr, align 8
  store ptr %0, ptr %3, align 8, !tbaa !187
  store ptr %1, ptr %4, align 8, !tbaa !29
  %5 = load ptr, ptr %3, align 8
  %6 = load ptr, ptr %4, align 8, !tbaa !29
  %7 = load ptr, ptr %5, align 8, !tbaa !50
  %8 = getelementptr i8, ptr %7, i64 -24
  %9 = load i64, ptr %8, align 8
  %10 = getelementptr inbounds i8, ptr %5, i64 %9
  %11 = call noundef nonnull align 8 dereferenceable(216) ptr %6(ptr noundef nonnull align 8 dereferenceable(216) %10)
  ret ptr %5
}

; Function Attrs: mustprogress uwtable
define dso_local void @_ZN7testing8internal7PrintToEDiPSo(i32 noundef zeroext %0, ptr noundef %1) #4 {
  %3 = alloca i32, align 4
  %4 = alloca ptr, align 8
  %5 = alloca %"struct.std::_Setfill", align 1
  %6 = alloca %"struct.std::_Setw", align 4
  store i32 %0, ptr %3, align 4, !tbaa !353
  store ptr %1, ptr %4, align 8, !tbaa !187
  %7 = load ptr, ptr %4, align 8, !tbaa !187
  %8 = call noundef nonnull align 8 dereferenceable(8) ptr @_ZNSolsEPFRSt8ios_baseS0_E(ptr noundef nonnull align 8 dereferenceable(8) %7, ptr noundef @_ZSt3hexRSt8ios_base)
  %9 = call noundef nonnull align 8 dereferenceable(8) ptr @_ZStlsISt11char_traitsIcEERSt13basic_ostreamIcT_ES5_PKc(ptr noundef nonnull align 8 dereferenceable(8) %8, ptr noundef @.str.81)
  %10 = call noundef nonnull align 8 dereferenceable(8) ptr @_ZNSolsEPFRSt8ios_baseS0_E(ptr noundef nonnull align 8 dereferenceable(8) %9, ptr noundef @_ZSt9uppercaseRSt8ios_base)
  %11 = call i8 @_ZSt7setfillIcESt8_SetfillIT_ES1_(i8 noundef signext 48)
  %12 = getelementptr inbounds nuw %"struct.std::_Setfill", ptr %5, i32 0, i32 0
  store i8 %11, ptr %12, align 1
  %13 = getelementptr inbounds nuw %"struct.std::_Setfill", ptr %5, i32 0, i32 0
  %14 = load i8, ptr %13, align 1
  %15 = call noundef nonnull align 8 dereferenceable(8) ptr @_ZStlsIcSt11char_traitsIcEERSt13basic_ostreamIT_T0_ES6_St8_SetfillIS3_E(ptr noundef nonnull align 8 dereferenceable(8) %10, i8 %14)
  %16 = call i32 @_ZSt4setwi(i32 noundef 4)
  %17 = getelementptr inbounds nuw %"struct.std::_Setw", ptr %6, i32 0, i32 0
  store i32 %16, ptr %17, align 4
  %18 = getelementptr inbounds nuw %"struct.std::_Setw", ptr %6, i32 0, i32 0
  %19 = load i32, ptr %18, align 4
  %20 = call noundef nonnull align 8 dereferenceable(8) ptr @_ZStlsIcSt11char_traitsIcEERSt13basic_ostreamIT_T0_ES6_St5_Setw(ptr noundef nonnull align 8 dereferenceable(8) %15, i32 %19)
  %21 = load i32, ptr %3, align 4, !tbaa !353
  %22 = call noundef nonnull align 8 dereferenceable(8) ptr @_ZNSolsEj(ptr noundef nonnull align 8 dereferenceable(8) %20, i32 noundef %21)
  ret void
}